; Function Attrs: mustprogress uwtable
define hidden noundef i32 @_ZNK11doc_manager4hashERK3doc(ptr noundef nonnull align 8 dereferenceable(1080) %this, ptr nocapture noundef nonnull readonly align 8 dereferenceable(88) %src) local_unnamed_addr #3 align 2 {
entry:
  %m_pos.i.i = getelementptr inbounds i8, ptr %src, i64 16
  %0 = load i32, ptr %m_pos.i.i, align 8
  %cmp7.not = icmp eq i32 %0, 0
  br i1 %cmp7.not, label %for.end, label %for.body.lr.ph

for.body.lr.ph:                                   ; preds = %entry
  %m_neg.i = getelementptr inbounds i8, ptr %src, i64 8
  br label %for.body

for.body:                                         ; preds = %for.body.lr.ph, %for.body
  %indvars.iv = phi i64 [ 0, %for.body.lr.ph ], [ %indvars.iv.next, %for.body ]
  %r.08 = phi i32 [ 0, %for.body.lr.ph ], [ %add, %for.body ]
  %mul = shl i32 %r.08, 1
  %1 = load ptr, ptr %m_neg.i, align 8
  %arrayidx.i.i = getelementptr inbounds ptr, ptr %1, i64 %indvars.iv
  %2 = load ptr, ptr %arrayidx.i.i, align 8
  %call5 = tail call noundef i32 @_ZNK11tbv_manager4hashERK3tbv(ptr noundef nonnull align 8 dereferenceable(552) %this, ptr noundef nonnull align 4 dereferenceable(4) %2)
  %add = add i32 %call5, %mul
  %indvars.iv.next = add nuw nsw i64 %indvars.iv, 1
  %3 = load i32, ptr %m_pos.i.i, align 8
  %4 = zext i32 %3 to i64
  %cmp = icmp ult i64 %indvars.iv.next, %4
  br i1 %cmp, label %for.body, label %for.end, !llvm.loop !50

for.end:                                          ; preds = %for.body, %entry
  %r.0.lcssa = phi i32 [ 0, %entry ], [ %add, %for.body ]
  %5 = load ptr, ptr %src, align 8
  %call8 = tail call noundef i32 @_ZNK11tbv_manager4hashERK3tbv(ptr noundef nonnull align 8 dereferenceable(552) %this, ptr noundef nonnull align 4 dereferenceable(4) %5)
  %add9 = add i32 %call8, %r.0.lcssa
  ret i32 %add9
}